; Function Attrs: mustprogress uwtable
define dso_local void @_ZN4absl19str_format_internal10FormatPackB5cxx11ENS0_21UntypedFormatSpecImplENS_4SpanIKNS0_13FormatArgImplEEE(ptr dead_on_unwind noalias writable sret(%"class.std::__cxx11::basic_string") align 8 %0, ptr %1, i64 %2, ptr %3, i64 %4) local_unnamed_addr #0 personality ptr @__gxx_personality_v0 {
  %6 = getelementptr inbounds nuw i8, ptr %0, i64 16
  store ptr %6, ptr %0, align 8, !tbaa !30
  %7 = getelementptr inbounds nuw i8, ptr %0, i64 8
  store i64 0, ptr %7, align 8, !tbaa !33
  store i8 0, ptr %6, align 8, !tbaa !16
  %8 = invoke noundef zeroext i1 @_ZN4absl19str_format_internal13FormatUntypedENS0_17FormatRawSinkImplENS0_21UntypedFormatSpecImplENS_4SpanIKNS0_13FormatArgImplEEE(ptr nonnull %0, ptr nonnull @_ZN4absl19str_format_internal17FormatRawSinkImpl5FlushINSt7__cxx1112basic_stringIcSt11char_traitsIcESaIcEEEEEvPvSt17basic_string_viewIcS6_E, ptr %1, i64 %2, ptr %3, i64 %4)
          to label %9 unwind label %12

9:                                                ; preds = %5
  br i1 %8, label %20, label %10, !prof !66

10:                                               ; preds = %9
  store i64 0, ptr %7, align 8, !tbaa !33
  %11 = load ptr, ptr %0, align 8, !tbaa !70
  store i8 0, ptr %11, align 1, !tbaa !16
  br label %20

12:                                               ; preds = %5
  %13 = landingpad { ptr, i32 }
          cleanup
  %14 = load ptr, ptr %0, align 8, !tbaa !70
  %15 = icmp eq ptr %14, %6
  br i1 %15, label %_ZNKSt7__cxx1112basic_stringIcSt11char_traitsIcESaIcEE11_M_is_localEv.exit.thread.i.i, label %_ZNKSt7__cxx1112basic_stringIcSt11char_traitsIcESaIcEE11_M_is_localEv.exit.i.i

_ZNKSt7__cxx1112basic_stringIcSt11char_traitsIcESaIcEE11_M_is_localEv.exit.thread.i.i: ; preds = %12
  %16 = load i64, ptr %7, align 8, !tbaa !33
  %17 = icmp ult i64 %16, 16
  tail call void @llvm.assume(i1 %17)
  br label %_ZNSt7__cxx1112basic_stringIcSt11char_traitsIcESaIcEED2Ev.exit

_ZNKSt7__cxx1112basic_stringIcSt11char_traitsIcESaIcEE11_M_is_localEv.exit.i.i: ; preds = %12
  %18 = load i64, ptr %6, align 8, !tbaa !16
  %19 = add i64 %18, 1
  tail call void @_ZdlPvm(ptr noundef %14, i64 noundef %19) #18
  br label %_ZNSt7__cxx1112basic_stringIcSt11char_traitsIcESaIcEED2Ev.exit

_ZNSt7__cxx1112basic_stringIcSt11char_traitsIcESaIcEED2Ev.exit: ; preds = %_ZNKSt7__cxx1112basic_stringIcSt11char_traitsIcESaIcEE11_M_is_localEv.exit.thread.i.i, %_ZNKSt7__cxx1112basic_stringIcSt11char_traitsIcESaIcEE11_M_is_localEv.exit.i.i
  resume { ptr, i32 } %13

20:                                               ; preds = %9, %10
  ret void
}